target datalayout = "e-m:e-p270:32:32-p271:32:32-p272:64:64-i64:64-i128:128-f80:128-n8:16:32:64-S128"
target triple = "x86_64-pc-linux-gnu"

%"class.os::PageSizes" = type { i64 }

@.str.79 = private unnamed_addr constant [3 x i8] c", \00", align 1
@.str.80 = private unnamed_addr constant [5 x i8] c"%luk\00", align 1
@.str.81 = private unnamed_addr constant [5 x i8] c"%luM\00", align 1
@.str.82 = private unnamed_addr constant [5 x i8] c"%luG\00", align 1
@.str.83 = private unnamed_addr constant [6 x i8] c"empty\00", align 1

; Function Attrs: mustprogress nounwind uwtable
define linkonce_odr hidden noundef i32 @_Z23count_trailing_zeros_64m(i64 noundef %0) #1 comdat {
  %2 = alloca i64, align 8
  store i64 %0, ptr %2, align 8
  %3 = load i64, ptr %2, align 8
  %4 = call i64 @llvm.cttz.i64(i64 %3, i1 true)
  %5 = trunc i64 %4 to i32
  ret i32 %5
}

; Function Attrs: mustprogress nounwind uwtable
define linkonce_odr noundef i64 @_ZNSt14numeric_limitsImE3maxEv() #1 comdat align 2 {
  ret i64 -1
}

; Function Attrs: mustprogress nounwind uwtable
define linkonce_odr hidden noundef i32 @_Z20count_trailing_zerosImTnNSt9enable_ifIXcvbsr3std11is_integralIT_EE5valueEiE4typeELi0ETnNS0_IXcvblestS1_Lm8EEiE4typeELi0EEjS1_(i64 noundef %0) #1 comdat {
  %2 = alloca i64, align 8
  store i64 %0, ptr %2, align 8
  %3 = load i64, ptr %2, align 8
  %4 = call noundef i32 @_Z23count_trailing_zeros_64m(i64 noundef %3)
  ret i32 %4
}

; Function Attrs: mustprogress nounwind uwtable
define linkonce_odr hidden noundef i64 @_Z14max_power_of_2ImTnNSt9enable_ifIXcvbsr3std11is_integralIT_EE5valueEiE4typeELi0EES1_v() #1 comdat {
  %1 = alloca i64, align 8
  %2 = call noundef i64 @_ZNSt14numeric_limitsImE3maxEv() #13
  store i64 %2, ptr %1, align 8
  %3 = load i64, ptr %1, align 8
  %4 = load i64, ptr %1, align 8
  %5 = lshr i64 %4, 1
  %6 = sub i64 %3, %5
  ret i64 %6
}

; Function Attrs: mustprogress nounwind uwtable
define hidden noundef i64 @_ZNK2os9PageSizes11next_largerEm(ptr noundef nonnull align 8 dereferenceable(8) %0, i64 noundef %1) #1 align 2 {
  %3 = alloca i64, align 8
  %4 = alloca ptr, align 8
  %5 = alloca i64, align 8
  %6 = alloca i64, align 8
  store ptr %0, ptr %4, align 8
  store i64 %1, ptr %5, align 8
  %7 = load ptr, ptr %4, align 8
  %8 = load i64, ptr %5, align 8
  %9 = call noundef i64 @_Z14max_power_of_2ImTnNSt9enable_ifIXcvbsr3std11is_integralIT_EE5valueEiE4typeELi0EES1_v()
  %10 = icmp eq i64 %8, %9
  br i1 %10, label %11, label %12

11:                                               ; preds = %2
  store i64 0, ptr %3, align 8
  br label %29

12:                                               ; preds = %2
  %13 = getelementptr inbounds %"class.os::PageSizes", ptr %7, i32 0, i32 0
  %14 = load i64, ptr %13, align 8
  %15 = load i64, ptr %5, align 8
  %16 = load i64, ptr %5, align 8
  %17 = sub i64 %16, 1
  %18 = add i64 %15, %17
  %19 = xor i64 %18, -1
  %20 = and i64 %14, %19
  store i64 %20, ptr %6, align 8
  %21 = load i64, ptr %6, align 8
  %22 = icmp eq i64 %21, 0
  br i1 %22, label %23, label %24

23:                                               ; preds = %12
  store i64 0, ptr %3, align 8
  br label %29

24:                                               ; preds = %12
  %25 = load i64, ptr %6, align 8
  %26 = call noundef i32 @_Z20count_trailing_zerosImTnNSt9enable_ifIXcvbsr3std11is_integralIT_EE5valueEiE4typeELi0ETnNS0_IXcvblestS1_Lm8EEiE4typeELi0EEjS1_(i64 noundef %25)
  %27 = zext i32 %26 to i64
  %28 = shl i64 1, %27
  store i64 %28, ptr %3, align 8
  br label %29

29:                                               ; preds = %24, %23, %11
  %30 = load i64, ptr %3, align 8
  ret i64 %30
}

; Function Attrs: mustprogress nounwind uwtable
define linkonce_odr hidden void @_ZN12outputStream9print_rawEPKc(ptr noundef nonnull align 8 dereferenceable(56) %0, ptr noundef %1) #1 comdat align 2 {
  %3 = alloca ptr, align 8
  %4 = alloca ptr, align 8
  store ptr %0, ptr %3, align 8
  store ptr %1, ptr %4, align 8
  %5 = load ptr, ptr %3, align 8
  %6 = load ptr, ptr %4, align 8
  %7 = load ptr, ptr %4, align 8
  %8 = call i64 @strlen(ptr noundef %7) #14
  call void @_ZN12outputStream9print_rawEPKcm(ptr noundef nonnull align 8 dereferenceable(56) %5, ptr noundef %6, i64 noundef %8)
  ret void
}

; Function Attrs: mustprogress nounwind uwtable
define hidden noundef i64 @_ZNK2os9PageSizes8smallestEv(ptr noundef nonnull align 8 dereferenceable(8) %0) #1 align 2 {
  %2 = alloca ptr, align 8
  store ptr %0, ptr %2, align 8
  %3 = load ptr, ptr %2, align 8
  %4 = call noundef i64 @_ZNK2os9PageSizes11next_largerEm(ptr noundef nonnull align 8 dereferenceable(8) %3, i64 noundef 1)
  ret i64 %4
}

; Function Attrs: mustprogress nounwind uwtable
define hidden void @_ZNK2os9PageSizes8print_onEP12outputStream(ptr noundef nonnull align 8 dereferenceable(8) %0, ptr noundef %1) #1 align 2 {
  %3 = alloca ptr, align 8
  %4 = alloca ptr, align 8
  %5 = alloca i8, align 1
  %6 = alloca i64, align 8
  store ptr %0, ptr %3, align 8
  store ptr %1, ptr %4, align 8
  %7 = load ptr, ptr %3, align 8
  store i8 1, ptr %5, align 1
  %8 = call noundef i64 @_ZNK2os9PageSizes8smallestEv(ptr noundef nonnull align 8 dereferenceable(8) %7)
  store i64 %8, ptr %6, align 8
  br label %9

9:                                                ; preds = %38, %2
  %10 = load i64, ptr %6, align 8
  %11 = icmp ne i64 %10, 0
  br i1 %11, label %12, label %41

12:                                               ; preds = %9
  %13 = load i8, ptr %5, align 1
  %14 = trunc i8 %13 to i1
  br i1 %14, label %15, label %16

15:                                               ; preds = %12
  store i8 0, ptr %5, align 1
  br label %18

16:                                               ; preds = %12
  %17 = load ptr, ptr %4, align 8
  call void @_ZN12outputStream9print_rawEPKc(ptr noundef nonnull align 8 dereferenceable(56) %17, ptr noundef @.str.79)
  br label %18

18:                                               ; preds = %16, %15
  %19 = load i64, ptr %6, align 8
  %20 = icmp ult i64 %19, 1048576
  br i1 %20, label %21, label %25

21:                                               ; preds = %18
  %22 = load ptr, ptr %4, align 8
  %23 = load i64, ptr %6, align 8
  %24 = udiv i64 %23, 1024
  call void (ptr, ptr, ...) @_ZN12outputStream5printEPKcz(ptr noundef nonnull align 8 dereferenceable(56) %22, ptr noundef @.str.80, i64 noundef %24)
  br label %37

25:                                               ; preds = %18
  %26 = load i64, ptr %6, align 8
  %27 = icmp ult i64 %26, 1073741824
  br i1 %27, label %28, label %32

28:                                               ; preds = %25
  %29 = load ptr, ptr %4, align 8
  %30 = load i64, ptr %6, align 8
  %31 = udiv i64 %30, 1048576
  call void (ptr, ptr, ...) @_ZN12outputStream5printEPKcz(ptr noundef nonnull align 8 dereferenceable(56) %29, ptr noundef @.str.81, i64 noundef %31)
  br label %36

32:                                               ; preds = %25
  %33 = load ptr, ptr %4, align 8
  %34 = load i64, ptr %6, align 8
  %35 = udiv i64 %34, 1073741824
  call void (ptr, ptr, ...) @_ZN12outputStream5printEPKcz(ptr noundef nonnull align 8 dereferenceable(56) %33, ptr noundef @.str.82, i64 noundef %35)
  br label %36

36:                                               ; preds = %32, %28
  br label %37

37:                                               ; preds = %36, %21
  br label %38

38:                                               ; preds = %37
  %39 = load i64, ptr %6, align 8
  %40 = call noundef i64 @_ZNK2os9PageSizes11next_largerEm(ptr noundef nonnull align 8 dereferenceable(8) %7, i64 noundef %39)
  store i64 %40, ptr %6, align 8
  br label %9, !llvm.loop !35

41:                                               ; preds = %9
  %42 = load i8, ptr %5, align 1
  %43 = trunc i8 %42 to i1
  br i1 %43, label %44, label %46

44:                                               ; preds = %41
  %45 = load ptr, ptr %4, align 8
  call void (ptr, ptr, ...) @_ZN12outputStream5printEPKcz(ptr noundef nonnull align 8 dereferenceable(56) %45, ptr noundef @.str.83)
  br label %46

46:                                               ; preds = %44, %41
  ret void
}